EXPORTS
    EndTime @1
    GetMicroSeconds @2
    InitTime @3
    JACK_METADATA_CONNECTED @4 DATA
    JACK_METADATA_EVENT_TYPES @5 DATA
    JACK_METADATA_HARDWARE @6 DATA
    JACK_METADATA_ICON_LARGE @7 DATA
    JACK_METADATA_ICON_NAME @8 DATA
    JACK_METADATA_ICON_SMALL @9 DATA
    JACK_METADATA_ORDER @10 DATA
    JACK_METADATA_PORT_GROUP @11 DATA
    JACK_METADATA_PRETTY_NAME @12 DATA
    JACK_METADATA_SIGNAL_TYPE @13 DATA
    JackSleep @14
    _Z23jackctl_driver_get_descP14jackctl_driver @15
    _ZN14JackDriverInfo4OpenEP18jack_driver_desc_tPN4Jack16JackLockedEngineEPNS2_16JackWinSemaphoreEPK7_JSList @16
    _ZN14JackDriverInfoD1Ev @17
    _ZN14JackDriverInfoD2Ev @18
    _ZN4Jack10JackClient10DeactivateEv @19
    _ZN4Jack10JackClient10OnShutdownEPFvPvES1_ @20
    _ZN4Jack10JackClient10PortIsMineEj @21
    _ZN4Jack10JackClient10PortRenameEjPKc @22
    _ZN4Jack10JackClient11CycleSignalEi @23
    _ZN4Jack10JackClient11GetThreadIDEv @24
    _ZN4Jack10JackClient11PortConnectEPKcS2_ @25
    _ZN4Jack10JackClient11StartThreadEv @26
    _ZN4Jack10JackClient12ClientNotifyEiPKciiS2_ii @27
    _ZN4Jack10JackClient12PortRegisterEPKcS2_mm @28
    _ZN4Jack10JackClient12SessionReplyEP19_jack_session_event @29
    _ZN4Jack10JackClient12SetFreeWheelEi @30
    _ZN4Jack10JackClient13SessionNotifyEPKc20JackSessionEventTypeS2_ @31
    _ZN4Jack10JackClient13SetBufferSizeEj @32
    _ZN4Jack10JackClient13TransportStopEv @33
    _ZN4Jack10JackClient14OnInfoShutdownEPFv10JackStatusPKcPvES4_ @34
    _ZN4Jack10JackClient14PortDisconnectEPKcS2_ @35
    _ZN4Jack10JackClient14PortDisconnectEj @36
    _ZN4Jack10JackClient14PortUnRegisterEj @37
    _ZN4Jack10JackClient14SetSyncTimeoutEy @38
    _ZN4Jack10JackClient14TransportQueryEP14_jack_position @39
    _ZN4Jack10JackClient14TransportStartEv @40
    _ZN4Jack10JackClient15ClientNotifyImpEiPKciiS2_ii @41
    _ZN4Jack10JackClient15ReleaseTimebaseEv @42
    _ZN4Jack10JackClient15SetInitCallbackEPFvPvES1_ @43
    _ZN4Jack10JackClient15SetSyncCallbackEPFi22jack_transport_state_tP14_jack_positionPvES4_ @44
    _ZN4Jack10JackClient15SetXRunCallbackEPFiPvES1_ @45
    _ZN4Jack10JackClient15SetupDriverSyncEb @46
    _ZN4Jack10JackClient15TransportLocateEj @47
    _ZN4Jack10JackClient16CallSyncCallbackEv @48
    _ZN4Jack10JackClient16SetProcessThreadEPFPvS1_ES1_ @49
    _ZN4Jack10JackClient17ReserveClientNameEPKcS2_ @50
    _ZN4Jack10JackClient18InternalClientLoadEPKc11JackOptionsP10JackStatusP14jack_varargs_t @51
    _ZN4Jack10JackClient18SetLatencyCallbackEPFv23JackLatencyCallbackModePvES2_ @52
    _ZN4Jack10JackClient18SetProcessCallbackEPFijPvES1_ @53
    _ZN4Jack10JackClient18SetSessionCallbackEPFvP19_jack_session_eventPvES3_ @54
    _ZN4Jack10JackClient19GetClientNameByUUIDEPKc @55
    _ZN4Jack10JackClient19SetTimebaseCallbackEiPFv22jack_transport_state_tjP14_jack_positioniPvES4_ @56
    _ZN4Jack10JackClient19TransportRepositionEPK14_jack_position @57
    _ZN4Jack10JackClient20CallTimebaseCallbackEv @58
    _ZN4Jack10JackClient20GetUUIDForClientNameEPKc @59
    _ZN4Jack10JackClient20InternalClientHandleEPKcP10JackStatus @60
    _ZN4Jack10JackClient20InternalClientUnloadEiP10JackStatus @61
    _ZN4Jack10JackClient20PropertyChangeNotifyEyPKc22jack_property_change_t @62
    _ZN4Jack10JackClient20SetFreewheelCallbackEPFviPvES1_ @63
    _ZN4Jack10JackClient21ComputeTotalLatenciesEv @64
    _ZN4Jack10JackClient21GetInternalClientNameEi @65
    _ZN4Jack10JackClient21HandleLatencyCallbackEi @66
    _ZN4Jack10JackClient21SetBufferSizeCallbackEPFijPvES1_ @67
    _ZN4Jack10JackClient21SetGraphOrderCallbackEPFiPvES1_ @68
    _ZN4Jack10JackClient21SetPortRenameCallbackEPFvjPKcS2_PvES3_ @69
    _ZN4Jack10JackClient21SetSampleRateCallbackEPFijPvES1_ @70
    _ZN4Jack10JackClient22SetPortConnectCallbackEPFvjjiPvES1_ @71
    _ZN4Jack10JackClient24ClientHasSessionCallbackEPKc @72
    _ZN4Jack10JackClient24GetCurrentTransportFrameEv @73
    _ZN4Jack10JackClient25SetPropertyChangeCallbackEPFvyPKc22jack_property_change_tPvES4_ @74
    _ZN4Jack10JackClient27SetPortRegistrationCallbackEPFvjiPvES1_ @75
    _ZN4Jack10JackClient29SetClientRegistrationCallbackEPFvPKciPvES3_ @76
    _ZN4Jack10JackClient4InitEv @77
    _ZN4Jack10JackClient5CloseEv @78
    _ZN4Jack10JackClient7ExecuteEv @79
    _ZN4Jack10JackClient8ActivateEv @80
    _ZN4Jack10JackClient8IsActiveEv @81
    _ZN4Jack10JackClient8ShutDownE10JackStatusPKc @82
    _ZN4Jack10JackClient9CycleWaitEv @83
    _ZN4Jack10JackClientC1EPNS_16JackWinSemaphoreE @84
    _ZN4Jack10JackClientC2EPNS_16JackWinSemaphoreE @85
    _ZN4Jack10JackClientD0Ev @86
    _ZN4Jack10JackClientD1Ev @87
    _ZN4Jack10JackClientD2Ev @88
    _ZN4Jack10JackDriver10InitializeEv @89
    _ZN4Jack10JackDriver10NotifyXRunEyf @90
    _ZN4Jack10JackDriver10StopSlavesEv @91
    _ZN4Jack10JackDriver11ProcessReadEv @92
    _ZN4Jack10JackDriver11RemoveSlaveEPNS_19JackDriverInterfaceE @93
    _ZN4Jack10JackDriver11StartSlavesEv @94
    _ZN4Jack10JackDriver12ClientNotifyEiPKciiS2_ii @95
    _ZN4Jack10JackDriver12CycleIncTimeEv @96
    _ZN4Jack10JackDriver12ProcessWriteEv @97
    _ZN4Jack10JackDriver12ResumeRefNumEv @98
    _ZN4Jack10JackDriver13MatchPortNameEPKcPS2_iRKNSt7__cxx1112basic_stringIcSt11char_traitsIcESaIcEEE @99
    _ZN4Jack10JackDriver13NotifyFailureEiPKc @100
    _ZN4Jack10JackDriver13SetBufferSizeEj @101
    _ZN4Jack10JackDriver13SetSampleRateEj @102
    _ZN4Jack10JackDriver13SuspendRefNumEv @103
    _ZN4Jack10JackDriver15LoadConnectionsEib @104
    _ZN4Jack10JackDriver15ProcessReadSyncEv @105
    _ZN4Jack10JackDriver15SaveConnectionsEi @106
    _ZN4Jack10JackDriver15SetupDriverSyncEib @107
    _ZN4Jack10JackDriver16CycleTakeEndTimeEv @108
    _ZN4Jack10JackDriver16NotifyBufferSizeEj @109
    _ZN4Jack10JackDriver16NotifySampleRateEj @110
    _ZN4Jack10JackDriver16ProcessReadAsyncEv @111
    _ZN4Jack10JackDriver16ProcessWriteSyncEv @112
    _ZN4Jack10JackDriver17IsFixedBufferSizeEv @113
    _ZN4Jack10JackDriver17ProcessReadSlavesEv @114
    _ZN4Jack10JackDriver17ProcessWriteAsyncEv @115
    _ZN4Jack10JackDriver18CycleTakeBeginTimeEv @116
    _ZN4Jack10JackDriver18ProcessWriteSlavesEv @117
    _ZN4Jack10JackDriver4OpenEjjbbiibPKcS2_jj @118
    _ZN4Jack10JackDriver4OpenEv @119
    _ZN4Jack10JackDriver4ReadEv @120
    _ZN4Jack10JackDriver4StopEv @121
    _ZN4Jack10JackDriver5CloseEv @122
    _ZN4Jack10JackDriver5StartEv @123
    _ZN4Jack10JackDriver5WriteEv @124
    _ZN4Jack10JackDriver6AttachEv @125
    _ZN4Jack10JackDriver6DetachEv @126
    _ZN4Jack10JackDriver7ProcessEv @127
    _ZN4Jack10JackDriver8AddSlaveEPNS_19JackDriverInterfaceE @128
    _ZN4Jack10JackDriver9GetMasterEv @129
    _ZN4Jack10JackDriver9SetMasterEb @130
    _ZN4Jack10JackDriverC1EPKcS2_PNS_16JackLockedEngineEPNS_16JackWinSemaphoreE @131
    _ZN4Jack10JackDriverC2EPKcS2_PNS_16JackLockedEngineEPNS_16JackWinSemaphoreE @132
    _ZN4Jack10JackDriverD0Ev @133
    _ZN4Jack10JackDriverD1Ev @134
    _ZN4Jack10JackDriverD2Ev @135
    _ZN4Jack10JackEngine10ClientKillEi @136
    _ZN4Jack10JackEngine10EnsureUUIDEy @137
    _ZN4Jack10JackEngine10NotifyQuitEv @138
    _ZN4Jack10JackEngine10PortRenameEijPKc @139
    _ZN4Jack10JackEngine11ClientCheckEPKcyPciiPi @140
    _ZN4Jack10JackEngine11PortConnectEiPKcS2_ @141
    _ZN4Jack10JackEngine11PortConnectEijj @142
    _ZN4Jack10JackEngine11ProcessNextEy @143
    _ZN4Jack10JackEngine12ClientNotifyEPNS_19JackClientInterfaceEiPKciiS4_ii @144
    _ZN4Jack10JackEngine12GetClientPIDEPKc @145
    _ZN4Jack10JackEngine12NotifyClientEiiiPKcii @146
    _ZN4Jack10JackEngine12PortRegisterEiPKcS2_jjPj @147
    _ZN4Jack10JackEngine12SessionReplyEi @148
    _ZN4Jack10JackEngine13NotifyClientsEiiPKcii @149
    _ZN4Jack10JackEngine13NotifyFailureEiPKc @150
    _ZN4Jack10JackEngine13ReleaseRefnumEi @151
    _ZN4Jack10JackEngine13SessionNotifyEiPKc20JackSessionEventTypeS2_PNS_6detail31JackChannelTransactionInterfaceEPPNS_23JackSessionNotifyResultE @152
    _ZN4Jack10JackEngine14AllocateRefnumEv @153
    _ZN4Jack10JackEngine14ClientActivateEib @154
    _ZN4Jack10JackEngine14ClientCloseAuxEib @155
    _ZN4Jack10JackEngine14NotifyActivateEi @156
    _ZN4Jack10JackEngine14PortDisconnectEiPKcS2_ @157
    _ZN4Jack10JackEngine14PortDisconnectEijj @158
    _ZN4Jack10JackEngine14PortUnRegisterEij @159
    _ZN4Jack10JackEngine14ProcessCurrentEy @160
    _ZN4Jack10JackEngine15ClientCheckNameEPKc @161
    _ZN4Jack10JackEngine15GetClientRefNumEPKc @162
    _ZN4Jack10JackEngine15NotifyAddClientEPNS_19JackClientInterfaceEPKci @163
    _ZN4Jack10JackEngine15NotifyFreewheelEb @164
    _ZN4Jack10JackEngine16ClientDeactivateEi @165
    _ZN4Jack10JackEngine16NotifyBufferSizeEj @166
    _ZN4Jack10JackEngine16NotifyClientXRunEi @167
    _ZN4Jack10JackEngine16NotifyDriverXRunEv @168
    _ZN4Jack10JackEngine16NotifyPortRenameEjPKc @169
    _ZN4Jack10JackEngine16NotifySampleRateEj @170
    _ZN4Jack10JackEngine17CheckPortsConnectEijj @171
    _ZN4Jack10JackEngine17NotifyPortConnectEjjb @172
    _ZN4Jack10JackEngine17ReserveClientNameEPKcS2_ @173
    _ZN4Jack10JackEngine18ClientExternalOpenEPKciyPiS3_S3_S3_ @174
    _ZN4Jack10JackEngine18ClientInternalOpenEPKcPiPPNS_17JackEngineControlEPPNS_16JackGraphManagerEPNS_19JackClientInterfaceEb @175
    _ZN4Jack10JackEngine18GenerateUniqueNameEPc @176
    _ZN4Jack10JackEngine18NotifyGraphReorderEv @177
    _ZN4Jack10JackEngine18NotifyRemoveClientEPKci @178
    _ZN4Jack10JackEngine19ClientExternalCloseEi @179
    _ZN4Jack10JackEngine19ClientInternalCloseEib @180
    _ZN4Jack10JackEngine20GetClientNameForUUIDEPKcPc @181
    _ZN4Jack10JackEngine20GetUUIDForClientNameEPKcPc @182
    _ZN4Jack10JackEngine20InternalClientHandleEPKcPiS3_ @183
    _ZN4Jack10JackEngine20InternalClientUnloadEiPi @184
    _ZN4Jack10JackEngine20PropertyChangeNotifyEyPKc22jack_property_change_t @185
    _ZN4Jack10JackEngine21ComputeTotalLatenciesEv @186
    _ZN4Jack10JackEngine21GetInternalClientNameEiPc @187
    _ZN4Jack10JackEngine21NotifyPortRegistationEjb @188
    _ZN4Jack10JackEngine22PortSetDefaultMetadataEjPKc @189
    _ZN4Jack10JackEngine24ClientHasSessionCallbackEPKc @190
    _ZN4Jack10JackEngine4OpenEv @191
    _ZN4Jack10JackEngine5CloseEv @192
    _ZN4Jack10JackEngine7ProcessEyy @193
    _ZN4Jack10JackEngine9CheckXRunEy @194
    _ZN4Jack10JackEngineC1EPNS_16JackGraphManagerEPNS_16JackWinSemaphoreEPNS_17JackEngineControlEc @195
    _ZN4Jack10JackEngineC2EPNS_16JackGraphManagerEPNS_16JackWinSemaphoreEPNS_17JackEngineControlEc @196
    _ZN4Jack10JackEngineD1Ev @197
    _ZN4Jack10JackEngineD2Ev @198
    _ZN4Jack10JackServer11RemoveSlaveEP14JackDriverInfo @199
    _ZN4Jack10JackServer12SetFreewheelEb @200
    _ZN4Jack10JackServer12SwitchMasterEP18jack_driver_desc_tP7_JSList @201
    _ZN4Jack10JackServer13SetBufferSizeEj @202
    _ZN4Jack10JackServer15GetGraphManagerEv @203
    _ZN4Jack10JackServer15GetSynchroTableEv @204
    _ZN4Jack10JackServer15ReleaseTimebaseEi @205
    _ZN4Jack10JackServer16GetEngineControlEv @206
    _ZN4Jack10JackServer19InternalClientLoad1EPKcS2_S2_iPiyS3_ @207
    _ZN4Jack10JackServer19InternalClientLoad2EPKcS2_PK7_JSListiPiyS6_ @208
    _ZN4Jack10JackServer19SetTimebaseCallbackEii @209
    _ZN4Jack10JackServer21InternalClientLoadAuxEPNS_26JackLoadableInternalClientEPKcS4_iPiyS5_ @210
    _ZN4Jack10JackServer23LoadInternalSessionFileEPKc @211
    _ZN4Jack10JackServer4OpenEP18jack_driver_desc_tP7_JSList @212
    _ZN4Jack10JackServer4StopEv @213
    _ZN4Jack10JackServer5CloseEv @214
    _ZN4Jack10JackServer5StartEv @215
    _ZN4Jack10JackServer6NotifyEiii @216
    _ZN4Jack10JackServer8AddSlaveEP18jack_driver_desc_tP7_JSList @217
    _ZN4Jack10JackServer9GetEngineEv @218
    _ZN4Jack10JackServer9IsRunningEv @219
    _ZN4Jack10JackServerC1Ebbibiib17jack_timer_type_tcPKc @220
    _ZN4Jack10JackServerC2Ebbibiib17jack_timer_type_tcPKc @221
    _ZN4Jack10JackServerD1Ev @222
    _ZN4Jack10JackServerD2Ev @223
    _ZN4Jack10JackShmMemC1Ev @224
    _ZN4Jack10JackShmMemC2Ev @225
    _ZN4Jack10JackShmMemD1Ev @226
    _ZN4Jack10JackShmMemD2Ev @227
    _ZN4Jack10JackShmMemdlEPv @228
    _ZN4Jack10JackShmMemdlEPvy @229
    _ZN4Jack10JackShmMemnwEy @230
    _ZN4Jack10JackShmMemnwEyPv @231
    _ZN4Jack10PrintErrorEi @232
    _ZN4Jack10ThreadExitEv @233
    _ZN4Jack11GetHostNameEPci @234
    _ZN4Jack12GetLastFrameEv @235
    _ZN4Jack12JackWinMutex4LockEv @236
    _ZN4Jack12JackWinMutex6UnlockEv @237
    _ZN4Jack12JackWinMutex7TrylockEv @238
    _ZN4Jack12SocketAPIEndEv @239
    _ZN4Jack13GetPacketTypeEPNS_15_session_paramsE @240
    _ZN4Jack13JackArgParser10DeleteArgvEPPKc @241
    _ZN4Jack13JackArgParser10FreeParamsEP7_JSList @242
    _ZN4Jack13JackArgParser10GetNumArgvEv @243
    _ZN4Jack13JackArgParser11ParseParamsEP18jack_driver_desc_tPP7_JSList @244
    _ZN4Jack13JackArgParser12GetArgStringB5cxx11Ev @245
    _ZN4Jack13JackArgParser7GetArgcEv @246
    _ZN4Jack13JackArgParser7GetArgvEPPc @247
    _ZN4Jack13JackArgParser7GetArgvERSt6vectorINSt7__cxx1112basic_stringIcSt11char_traitsIcESaIcEEESaIS7_EE @248
    _ZN4Jack13JackArgParserC1EPKc @249
    _ZN4Jack13JackArgParserC2EPKc @250
    _ZN4Jack13JackArgParserD1Ev @251
    _ZN4Jack13JackArgParserD2Ev @252
    _ZN4Jack13JackException12PrintMessageEv @253
    _ZN4Jack13JackWinThread11GetThreadIDEv @254
    _ZN4Jack13JackWinThread12DropRealTimeEv @255
    _ZN4Jack13JackWinThread13ThreadHandlerEPv @256
    _ZN4Jack13JackWinThread15AcquireRealTimeEi @257
    _ZN4Jack13JackWinThread15AcquireRealTimeEv @258
    _ZN4Jack13JackWinThread15DropRealTimeImpEPv @259
    _ZN4Jack13JackWinThread16DropSelfRealTimeEv @260
    _ZN4Jack13JackWinThread18AcquireRealTimeImpEPvi @261
    _ZN4Jack13JackWinThread19AcquireSelfRealTimeEi @262
    _ZN4Jack13JackWinThread19AcquireSelfRealTimeEv @263
    _ZN4Jack13JackWinThread4KillEv @264
    _ZN4Jack13JackWinThread4StopEv @265
    _ZN4Jack13JackWinThread5StartEv @266
    _ZN4Jack13JackWinThread7KillImpEPv @267
    _ZN4Jack13JackWinThread7StopImpEPv @268
    _ZN4Jack13JackWinThread8IsThreadEv @269
    _ZN4Jack13JackWinThread8StartImpEPPviiPFmS1_ES1_ @270
    _ZN4Jack13JackWinThread9StartSyncEv @271
    _ZN4Jack13JackWinThread9TerminateEv @272
    _ZN4Jack13JackWinThreadC1EPNS_21JackRunnableInterfaceE @273
    _ZN4Jack13JackWinThreadC2EPNS_21JackRunnableInterfaceE @274
    _ZN4Jack13JackWinThreadD1Ev @275
    _ZN4Jack13JackWinThreadD2Ev @276
    _ZN4Jack13NetMidiBuffer12GetCycleSizeEv @277
    _ZN4Jack13NetMidiBuffer13DisplayEventsEv @278
    _ZN4Jack13NetMidiBuffer13GetNumPacketsEii @279
    _ZN4Jack13NetMidiBuffer15RenderToNetworkEiy @280
    _ZN4Jack13NetMidiBuffer17RenderFromNetworkEiy @281
    _ZN4Jack13NetMidiBuffer17RenderToJackPortsEv @282
    _ZN4Jack13NetMidiBuffer19RenderFromJackPortsEv @283
    _ZN4Jack13NetMidiBuffer9GetBufferEi @284
    _ZN4Jack13NetMidiBuffer9SetBufferEiPNS_14JackMidiBufferE @285
    _ZN4Jack13NetMidiBufferC1EPNS_15_session_paramsEjPc @286
    _ZN4Jack13NetMidiBufferC2EPNS_15_session_paramsEjPc @287
    _ZN4Jack13NetMidiBufferD1Ev @288
    _ZN4Jack13NetMidiBufferD2Ev @289
    _ZN4Jack13SetPacketTypeEPNS_15_session_paramsENS_17_sync_packet_typeE @290
    _ZN4Jack13SocketAPIInitEv @291
    _ZN4Jack14JackFrameTimer12IncFrameTimeEjyy @292
    _ZN4Jack14JackFrameTimer13InitFrameTimeEv @293
    _ZN4Jack14JackFrameTimer13ReadFrameTimeEPNS_9JackTimerE @294
    _ZN4Jack14JackFrameTimer14ResetFrameTimeEy @295
    _ZN4Jack14JackFrameTimer15IncFrameTimeAuxEjyy @296
    _ZN4Jack14JackFrameTimer16InitFrameTimeAuxEyy @297
    _ZN4Jack14JackMidiBuffer12ReserveEventEji @298
    _ZN4Jack14JackMidiBuffer5ResetEj @299
    _ZN4Jack14JackMidiDriver13SetBufferSizeEj @300
    _ZN4Jack14JackMidiDriver14GetInputBufferEi @301
    _ZN4Jack14JackMidiDriver15GetOutputBufferEi @302
    _ZN4Jack14JackMidiDriver15ProcessReadSyncEv @303
    _ZN4Jack14JackMidiDriver15UpdateLatenciesEv @304
    _ZN4Jack14JackMidiDriver16ProcessReadAsyncEv @305
    _ZN4Jack14JackMidiDriver16ProcessWriteSyncEv @306
    _ZN4Jack14JackMidiDriver17ProcessWriteAsyncEv @307
    _ZN4Jack14JackMidiDriver4OpenEbbiibPKcS2_jj @308
    _ZN4Jack14JackMidiDriver6AttachEv @309
    _ZN4Jack14JackMidiDriver6DetachEv @310
    _ZN4Jack14JackMidiDriverC1EPKcS2_PNS_16JackLockedEngineEPNS_16JackWinSemaphoreE @311
    _ZN4Jack14JackMidiDriverC2EPKcS2_PNS_16JackLockedEngineEPNS_16JackWinSemaphoreE @312
    _ZN4Jack14JackMidiDriverD0Ev @313
    _ZN4Jack14JackMidiDriverD1Ev @314
    _ZN4Jack14JackMidiDriverD2Ev @315
    _ZN4Jack14MidiBufferHToNEPNS_14JackMidiBufferES1_ @316
    _ZN4Jack14MidiBufferNToHEPNS_14JackMidiBufferES1_ @317
    _ZN4Jack14NetAudioBuffer11CheckPacketEii @318
    _ZN4Jack14NetAudioBuffer17RenderToJackPortsEi @319
    _ZN4Jack14NetAudioBuffer19RenderFromJackPortsEi @320
    _ZN4Jack14NetAudioBuffer20ActivePortsToNetworkEPc @321
    _ZN4Jack14NetAudioBuffer22ActivePortsFromNetworkEPcj @322
    _ZN4Jack14NetAudioBuffer7CleanupEv @323
    _ZN4Jack14NetAudioBuffer9GetBufferEi @324
    _ZN4Jack14NetAudioBuffer9NextCycleEv @325
    _ZN4Jack14NetAudioBuffer9SetBufferEiPf @326
    _ZN4Jack14NetAudioBufferC1EPNS_15_session_paramsEjPc @327
    _ZN4Jack14NetAudioBufferC2EPNS_15_session_paramsEjPc @328
    _ZN4Jack14NetAudioBufferD0Ev @329
    _ZN4Jack14NetAudioBufferD1Ev @330
    _ZN4Jack14NetAudioBufferD2Ev @331
    _ZN4Jack15GetCurrentFrameEv @332
    _ZN4Jack15GetGraphManagerEv @333
    _ZN4Jack15GetSynchroTableEv @334
    _ZN4Jack15JackAudioDriver11ProcessSyncEv @335
    _ZN4Jack15JackAudioDriver12ClientNotifyEiPKciiS2_ii @336
    _ZN4Jack15JackAudioDriver12ProcessAsyncEv @337
    _ZN4Jack15JackAudioDriver13SetBufferSizeEj @338
    _ZN4Jack15JackAudioDriver13SetSampleRateEj @339
    _ZN4Jack15JackAudioDriver14GetInputBufferEi @340
    _ZN4Jack15JackAudioDriver15GetOutputBufferEi @341
    _ZN4Jack15JackAudioDriver15UpdateLatenciesEv @342
    _ZN4Jack15JackAudioDriver16GetMonitorBufferEi @343
    _ZN4Jack15JackAudioDriver16ProcessGraphSyncEv @344
    _ZN4Jack15JackAudioDriver17ProcessGraphAsyncEv @345
    _ZN4Jack15JackAudioDriver21HandleLatencyCallbackEi @346
    _ZN4Jack15JackAudioDriver21ProcessGraphSyncSlaveEv @347
    _ZN4Jack15JackAudioDriver22ProcessGraphAsyncSlaveEv @348
    _ZN4Jack15JackAudioDriver22ProcessGraphSyncMasterEv @349
    _ZN4Jack15JackAudioDriver23ProcessGraphAsyncMasterEv @350
    _ZN4Jack15JackAudioDriver4OpenEjjbbiibPKcS2_jj @351
    _ZN4Jack15JackAudioDriver5WriteEv @352
    _ZN4Jack15JackAudioDriver6AttachEv @353
    _ZN4Jack15JackAudioDriver6DetachEv @354
    _ZN4Jack15JackAudioDriver7ProcessEv @355
    _ZN4Jack15JackAudioDriverC1EPKcS2_PNS_16JackLockedEngineEPNS_16JackWinSemaphoreE @356
    _ZN4Jack15JackAudioDriverC2EPKcS2_PNS_16JackLockedEngineEPNS_16JackWinSemaphoreE @357
    _ZN4Jack15JackAudioDriverD0Ev @358
    _ZN4Jack15JackAudioDriverD1Ev @359
    _ZN4Jack15JackAudioDriverD2Ev @360
    _ZN4Jack15JackTimedDriver10FirstCycleEy @361
    _ZN4Jack15JackTimedDriver11ProcessWaitEv @362
    _ZN4Jack15JackTimedDriver12CurrentCycleEy @363
    _ZN4Jack15JackTimedDriver5StartEv @364
    _ZN4Jack16GetEngineControlEv @365
    _ZN4Jack16GetMessageLengthEh @366
    _ZN4Jack16JackBaseWinMutex4LockEv @367
    _ZN4Jack16JackBaseWinMutex6UnlockEv @368
    _ZN4Jack16JackBaseWinMutex7TrylockEv @369
    _ZN4Jack16JackGraphManager10AssertPortEj @370
    _ZN4Jack16JackGraphManager10CheckPortsEjj @371
    _ZN4Jack16JackGraphManager10DeactivateEi @372
    _ZN4Jack16JackGraphManager10DisconnectEjj @373
    _ZN4Jack16JackGraphManager10InitRefNumEi @374
    _ZN4Jack16JackGraphManager11GetPortsAuxEPPKcS2_S2_m @375
    _ZN4Jack16JackGraphManager11GetTwoPortsEPKcS2_PjS3_ @376
    _ZN4Jack16JackGraphManager11IsConnectedEjj @377
    _ZN4Jack16JackGraphManager11ReleasePortEij @378
    _ZN4Jack16JackGraphManager12AllocatePortEiPKcS2_13JackPortFlagsj @379
    _ZN4Jack16JackGraphManager12ResumeRefNumEPNS_17JackClientControlEPNS_16JackWinSemaphoreE @380
    _ZN4Jack16JackGraphManager12RunNextGraphEv @381
    _ZN4Jack16JackGraphManager13DirectConnectEii @382
    _ZN4Jack16JackGraphManager13DisconnectAllEj @383
    _ZN4Jack16JackGraphManager13GetInputPortsEiPt @384
    _ZN4Jack16JackGraphManager13SetBufferSizeEj @385
    _ZN4Jack16JackGraphManager13SuspendRefNumEPNS_17JackClientControlEPNS_16JackWinSemaphoreEl @386
    _ZN4Jack16JackGraphManager14GetConnectionsEj @387
    _ZN4Jack16JackGraphManager14GetConnectionsEjPt @388
    _ZN4Jack16JackGraphManager14GetInputRefNumEj @389
    _ZN4Jack16JackGraphManager14GetOutputPortsEiPt @390
    _ZN4Jack16JackGraphManager14RemoveAllPortsEi @391
    _ZN4Jack16JackGraphManager14RequestMonitorEjb @392
    _ZN4Jack16JackGraphManager15AllocatePortAuxEiPKcS2_13JackPortFlags @393
    _ZN4Jack16JackGraphManager15GetOutputRefNumEj @394
    _ZN4Jack16JackGraphManager15IsFinishedGraphEv @395
    _ZN4Jack16JackGraphManager15RunCurrentGraphEv @396
    _ZN4Jack16JackGraphManager15TopologicalSortERSt6vectorItSaItEE @397
    _ZN4Jack16JackGraphManager16DirectDisconnectEii @398
    _ZN4Jack16JackGraphManager17GetConnectionsAuxEPNS_21JackConnectionManagerEPPKcj @399
    _ZN4Jack16JackGraphManager18DisconnectAllInputEj @400
    _ZN4Jack16JackGraphManager18DisconnectAllPortsEi @401
    _ZN4Jack16JackGraphManager18IsDirectConnectionEii @402
    _ZN4Jack16JackGraphManager18RecalculateLatencyEj23JackLatencyCallbackMode @403
    _ZN4Jack16JackGraphManager19ComputeTotalLatencyEj @404
    _ZN4Jack16JackGraphManager19DisconnectAllOutputEj @405
    _ZN4Jack16JackGraphManager21ComputeTotalLatenciesEv @406
    _ZN4Jack16JackGraphManager21RecalculateLatencyAuxEj23JackLatencyCallbackMode @407
    _ZN4Jack16JackGraphManager22ComputeTotalLatencyAuxEjjPNS_21JackConnectionManagerEi @408
    _ZN4Jack16JackGraphManager4SaveEPNS_21JackConnectionManagerE @409
    _ZN4Jack16JackGraphManager7ConnectEjj @410
    _ZN4Jack16JackGraphManager7DestroyEPS0_ @411
    _ZN4Jack16JackGraphManager7GetPortEPKc @412
    _ZN4Jack16JackGraphManager7GetPortEj @413
    _ZN4Jack16JackGraphManager7RestoreEPNS_21JackConnectionManagerE @414
    _ZN4Jack16JackGraphManager8ActivateEi @415
    _ZN4Jack16JackGraphManager8AllocateEi @416
    _ZN4Jack16JackGraphManager8GetPortsEPKcS2_m @417
    _ZN4Jack16JackGraphManager9GetBufferEj @418
    _ZN4Jack16JackGraphManager9GetBufferEjj @419
    _ZN4Jack16JackGraphManagerC1Ei @420
    _ZN4Jack16JackGraphManagerC2Ei @421
    _ZN4Jack16JackNetInterface10FinishRecvEPNS_14NetAudioBufferE @422
    _ZN4Jack16JackNetInterface10InitializeEv @423
    _ZN4Jack16JackNetInterface13SetRcvTimeOutEv @424
    _ZN4Jack16JackNetInterface16SetNetBufferSizeEv @425
    _ZN4Jack16JackNetInterface18AudioBufferFactoryEiPc @426
    _ZN4Jack16JackNetInterface18FreeNetworkBuffersEv @427
    _ZN4Jack16JackNetInterface8MidiRecvEPNS_14_packet_headerEPNS_13NetMidiBufferERj @428
    _ZN4Jack16JackNetInterface8MidiSendEPNS_13NetMidiBufferEii @429
    _ZN4Jack16JackNetInterface9AudioRecvEPNS_14_packet_headerEPNS_14NetAudioBufferE @430
    _ZN4Jack16JackNetInterface9AudioSendEPNS_14NetAudioBufferEi @431
    _ZN4Jack16JackNetInterface9SetParamsEv @432
    _ZN4Jack16JackNetInterfaceC1EPKci @433
    _ZN4Jack16JackNetInterfaceC1ERNS_15_session_paramsERNS_16JackNetWinSocketEPKc @434
    _ZN4Jack16JackNetInterfaceC1Ev @435
    _ZN4Jack16JackNetInterfaceC2EPKci @436
    _ZN4Jack16JackNetInterfaceC2ERNS_15_session_paramsERNS_16JackNetWinSocketEPKc @437
    _ZN4Jack16JackNetInterfaceC2Ev @438
    _ZN4Jack16JackNetInterfaceD0Ev @439
    _ZN4Jack16JackNetInterfaceD1Ev @440
    _ZN4Jack16JackNetInterfaceD2Ev @441
    _ZN4Jack16JackNetWinSocket10SetAddressEPKci @442
    _ZN4Jack16JackNetWinSocket10SetTimeOutEi @443
    _ZN4Jack16JackNetWinSocket12SetLocalLoopEv @444
    _ZN4Jack16JackNetWinSocket14JoinMCastGroupEPKc @445
    _ZN4Jack16JackNetWinSocket4BindEv @446
    _ZN4Jack16JackNetWinSocket4RecvEPvyi @447
    _ZN4Jack16JackNetWinSocket4SendEPKvyi @448
    _ZN4Jack16JackNetWinSocket5CloseEv @449
    _ZN4Jack16JackNetWinSocket5ResetEv @450
    _ZN4Jack16JackNetWinSocket6SendToEPKvyi @451
    _ZN4Jack16JackNetWinSocket6SendToEPKvyiPKc @452
    _ZN4Jack16JackNetWinSocket7ConnectEv @453
    _ZN4Jack16JackNetWinSocket7GetNameEPc @454
    _ZN4Jack16JackNetWinSocket7GetPortEv @455
    _ZN4Jack16JackNetWinSocket7IsLocalEPc @456
    _ZN4Jack16JackNetWinSocket8BindWithEPKc @457
    _ZN4Jack16JackNetWinSocket8BindWithEi @458
    _ZN4Jack16JackNetWinSocket8GetErrorEv @459
    _ZN4Jack16JackNetWinSocket8IsSocketEv @460
    _ZN4Jack16JackNetWinSocket8RecvFromEPvyi @461
    _ZN4Jack16JackNetWinSocket8SetPortAEi @462
    _ZN4Jack16JackNetWinSocket9CatchHostEPvyi @463
    _ZN4Jack16JackNetWinSocket9ConnectToEPKc @464
    _ZN4Jack16JackNetWinSocket9GetOptionEiiPvPi @465
    _ZN4Jack16JackNetWinSocket9GetRecvIPEv @466
    _ZN4Jack16JackNetWinSocket9GetSendIPEv @467
    _ZN4Jack16JackNetWinSocket9NewSocketEv @468
    _ZN4Jack16JackNetWinSocket9SetOptionEiiPKvi @469
    _ZN4Jack16JackNetWinSocketC1EPKci @470
    _ZN4Jack16JackNetWinSocketC1ERKS0_ @471
    _ZN4Jack16JackNetWinSocketC1Ev @472
    _ZN4Jack16JackNetWinSocketC2EPKci @473
    _ZN4Jack16JackNetWinSocketC2ERKS0_ @474
    _ZN4Jack16JackNetWinSocketC2Ev @475
    _ZN4Jack16JackNetWinSocketD1Ev @476
    _ZN4Jack16JackNetWinSocketD2Ev @477
    _ZN4Jack16JackNetWinSocketaSERKS0_ @478
    _ZN4Jack16JackWaiterDriver11ProcessNullEv @479
    _ZN4Jack16PacketHeaderHToNEPNS_14_packet_headerES1_ @480
    _ZN4Jack16PacketHeaderNToHEPNS_14_packet_headerES1_ @481
    _ZN4Jack17GetFramesFromTimeEy @482
    _ZN4Jack17GetTimeFromFramesEj @483
    _ZN4Jack17GetTransportStateEi @484
    _ZN4Jack17JackEngineControl10NotifyXRunEyf @485
    _ZN4Jack17JackEngineControl11CalcCPULoadEPPNS_19JackClientInterfaceEPNS_16JackGraphManagerEyy @486
    _ZN4Jack17JackEngineControl17ResetRollingUsecsEv @487
    _ZN4Jack17JackMidiReadQueueD0Ev @488
    _ZN4Jack17JackMidiReadQueueD1Ev @489
    _ZN4Jack17JackMidiReadQueueD2Ev @490
    _ZN4Jack17JackMidiSendQueue20GetNextScheduleFrameEv @491
    _ZN4Jack17JackMidiSendQueueD0Ev @492
    _ZN4Jack17JackMidiSendQueueD1Ev @493
    _ZN4Jack17JackMidiSendQueueD2Ev @494
    _ZN4Jack17JackServerGlobals10fUserCountE @495 DATA
    _ZN4Jack17JackServerGlobals11fSlavesListB5cxx11E @496 DATA
    _ZN4Jack17JackServerGlobals14fInternalsListB5cxx11E @497 DATA
    _ZN4Jack17JackServerGlobals17on_device_acquireE @498 DATA
    _ZN4Jack17JackServerGlobals17on_device_releaseE @499 DATA
    _ZN4Jack17JackServerGlobals26on_device_reservation_loopE @500 DATA
    _ZN4Jack17JackServerGlobals4InitEv @501
    _ZN4Jack17JackServerGlobals4StopEv @502
    _ZN4Jack17JackServerGlobals5StartEPKcP18jack_driver_desc_tP7_JSListiiiiiii17jack_timer_type_tc @503
    _ZN4Jack17JackServerGlobals6DeleteEv @504
    _ZN4Jack17JackServerGlobals7DestroyEv @505
    _ZN4Jack17JackServerGlobals9fInstanceE @506 DATA
    _ZN4Jack17NetIntAudioBuffer12GetCycleSizeEv @507
    _ZN4Jack17NetIntAudioBuffer13GetNumPacketsEi @508
    _ZN4Jack17NetIntAudioBuffer15RenderToNetworkEij @509
    _ZN4Jack17NetIntAudioBuffer16GetCycleDurationEv @510
    _ZN4Jack17NetIntAudioBuffer17RenderFromNetworkEiij @511
    _ZN4Jack17NetIntAudioBuffer17RenderToJackPortsEi @512
    _ZN4Jack17NetIntAudioBuffer19RenderFromJackPortsEi @513
    _ZN4Jack17NetIntAudioBufferC1EPNS_15_session_paramsEjPc @514
    _ZN4Jack17NetIntAudioBufferC2EPNS_15_session_paramsEjPc @515
    _ZN4Jack17NetIntAudioBufferD0Ev @516
    _ZN4Jack17NetIntAudioBufferD1Ev @517
    _ZN4Jack17NetIntAudioBufferD2Ev @518
    _ZN4Jack17SessionParamsHToNEPNS_15_session_paramsES1_ @519
    _ZN4Jack17SessionParamsNToHEPNS_15_session_paramsES1_ @520
    _ZN4Jack17TransportDataHToNEPNS_19_net_transport_dataES1_ @521
    _ZN4Jack17TransportDataNToHEPNS_19_net_transport_dataES1_ @522
    _ZN4Jack18ApplyRunningStatusEP17jack_midi_event_th @523
    _ZN4Jack18ApplyRunningStatusEPyPPhh @524
    _ZN4Jack18JackMidiAsyncQueue12DequeueEventEv @525
    _ZN4Jack18JackMidiAsyncQueue12EnqueueEventEjyPh @526
    _ZN4Jack18JackMidiAsyncQueue17GetAvailableSpaceEv @527
    _ZN4Jack18JackMidiAsyncQueueC1Eyy @528
    _ZN4Jack18JackMidiAsyncQueueC2Eyy @529
    _ZN4Jack18JackMidiAsyncQueueD0Ev @530
    _ZN4Jack18JackMidiAsyncQueueD1Ev @531
    _ZN4Jack18JackMidiAsyncQueueD2Ev @532
    _ZN4Jack18JackMidiWriteQueueD0Ev @533
    _ZN4Jack18JackMidiWriteQueueD1Ev @534
    _ZN4Jack18JackMidiWriteQueueD2Ev @535
    _ZN4Jack18JackThreadedDriver11ProcessReadEv @536
    _ZN4Jack18JackThreadedDriver11RemoveSlaveEPNS_19JackDriverInterfaceE @537
    _ZN4Jack18JackThreadedDriver11SetRealTimeEv @538
    _ZN4Jack18JackThreadedDriver12ClientNotifyEiPKciiS2_ii @539
    _ZN4Jack18JackThreadedDriver12ProcessWriteEv @540
    _ZN4Jack18JackThreadedDriver13SetBufferSizeEj @541
    _ZN4Jack18JackThreadedDriver13SetSampleRateEj @542
    _ZN4Jack18JackThreadedDriver15ProcessReadSyncEv @543
    _ZN4Jack18JackThreadedDriver16ProcessReadAsyncEv @544
    _ZN4Jack18JackThreadedDriver16ProcessWriteSyncEv @545
    _ZN4Jack18JackThreadedDriver17IsFixedBufferSizeEv @546
    _ZN4Jack18JackThreadedDriver17ProcessReadSlavesEv @547
    _ZN4Jack18JackThreadedDriver17ProcessWriteAsyncEv @548
    _ZN4Jack18JackThreadedDriver18ProcessWriteSlavesEv @549
    _ZN4Jack18JackThreadedDriver4InitEv @550
    _ZN4Jack18JackThreadedDriver4OpenEjjbbiibPKcS2_jj @551
    _ZN4Jack18JackThreadedDriver4OpenEv @552
    _ZN4Jack18JackThreadedDriver4ReadEv @553
    _ZN4Jack18JackThreadedDriver4StopEv @554
    _ZN4Jack18JackThreadedDriver5CloseEv @555
    _ZN4Jack18JackThreadedDriver5StartEv @556
    _ZN4Jack18JackThreadedDriver5WriteEv @557
    _ZN4Jack18JackThreadedDriver6AttachEv @558
    _ZN4Jack18JackThreadedDriver6DetachEv @559
    _ZN4Jack18JackThreadedDriver7ExecuteEv @560
    _ZN4Jack18JackThreadedDriver7ProcessEv @561
    _ZN4Jack18JackThreadedDriver8AddSlaveEPNS_19JackDriverInterfaceE @562
    _ZN4Jack18JackThreadedDriver9GetMasterEv @563
    _ZN4Jack18JackThreadedDriver9GetSlavesB5cxx11Ev @564
    _ZN4Jack18JackThreadedDriver9SetMasterEb @565
    _ZN4Jack18JackThreadedDriverC1EPNS_10JackDriverE @566
    _ZN4Jack18JackThreadedDriverC2EPNS_10JackDriverE @567
    _ZN4Jack18JackThreadedDriverD0Ev @568
    _ZN4Jack18JackThreadedDriverD1Ev @569
    _ZN4Jack18JackThreadedDriverD2Ev @570
    _ZN4Jack18NetOpusAudioBuffer12GetCycleSizeEv @571
    _ZN4Jack18NetOpusAudioBuffer13GetNumPacketsEi @572
    _ZN4Jack18NetOpusAudioBuffer15RenderToNetworkEij @573
    _ZN4Jack18NetOpusAudioBuffer16GetCycleDurationEv @574
    _ZN4Jack18NetOpusAudioBuffer17RenderFromNetworkEiij @575
    _ZN4Jack18NetOpusAudioBuffer17RenderToJackPortsEi @576
    _ZN4Jack18NetOpusAudioBuffer19RenderFromJackPortsEi @577
    _ZN4Jack18NetOpusAudioBuffer8FreeOpusEv @578
    _ZN4Jack18NetOpusAudioBufferC1EPNS_15_session_paramsEjPci @579
    _ZN4Jack18NetOpusAudioBufferC2EPNS_15_session_paramsEjPci @580
    _ZN4Jack18NetOpusAudioBufferD0Ev @581
    _ZN4Jack18NetOpusAudioBufferD1Ev @582
    _ZN4Jack18NetOpusAudioBufferD2Ev @583
    _ZN4Jack19JackEngineProfiling11CheckClientEPKci @584
    _ZN4Jack19JackEngineProfiling13GetCurMeasureEv @585
    _ZN4Jack19JackEngineProfiling7ProfileEPPNS_19JackClientInterfaceEPNS_16JackGraphManagerEyyy @586
    _ZN4Jack19JackEngineProfilingC1Ev @587
    _ZN4Jack19JackEngineProfilingC2Ev @588
    _ZN4Jack19JackEngineProfilingD1Ev @589
    _ZN4Jack19JackEngineProfilingD2Ev @590
    _ZN4Jack19JackRestarterDriver11RestartWaitEv @591
    _ZN4Jack19JackRestarterDriver16SetRestartDriverEPNS_10JackDriverE @592
    _ZN4Jack19JackTransportEngine10CycleBeginEjy @593
    _ZN4Jack19JackTransportEngine11SyncTimeoutEjj @594
    _ZN4Jack19JackTransportEngine12CopyPositionEP14_jack_positionS2_ @595
    _ZN4Jack19JackTransportEngine13RequestNewPosEP14_jack_position @596
    _ZN4Jack19JackTransportEngine13ResetTimebaseEi @597
    _ZN4Jack19JackTransportEngine14ReadCurrentPosEP14_jack_position @598
    _ZN4Jack19JackTransportEngine15CheckAllRollingEPPNS_19JackClientInterfaceE @599
    _ZN4Jack19JackTransportEngine15GetCurrentFrameEv @600
    _ZN4Jack19JackTransportEngine15MakeAllLocatingEPPNS_19JackClientInterfaceE @601
    _ZN4Jack19JackTransportEngine15MakeAllStoppingEPPNS_19JackClientInterfaceE @602
    _ZN4Jack19JackTransportEngine17SetTimebaseMasterEib @603
    _ZN4Jack19JackTransportEngine23MakeAllStartingLocatingEPPNS_19JackClientInterfaceE @604
    _ZN4Jack19JackTransportEngine5QueryEP14_jack_position @605
    _ZN4Jack19JackTransportEngine8CycleEndEPPNS_19JackClientInterfaceEjj @606
    _ZN4Jack19JackTransportEngineC1Ev @607
    _ZN4Jack19JackTransportEngineC2Ev @608
    _ZN4Jack19NetFloatAudioBuffer12GetCycleSizeEv @609
    _ZN4Jack19NetFloatAudioBuffer12UpdateParamsEi @610
    _ZN4Jack19NetFloatAudioBuffer13GetNumPacketsEi @611
    _ZN4Jack19NetFloatAudioBuffer15RenderToNetworkEPcii @612
    _ZN4Jack19NetFloatAudioBuffer15RenderToNetworkEij @613
    _ZN4Jack19NetFloatAudioBuffer16GetCycleDurationEv @614
    _ZN4Jack19NetFloatAudioBuffer17RenderFromNetworkEPcii @615
    _ZN4Jack19NetFloatAudioBuffer17RenderFromNetworkEiij @616
    _ZN4Jack19NetFloatAudioBufferC1EPNS_15_session_paramsEjPc @617
    _ZN4Jack19NetFloatAudioBufferC2EPNS_15_session_paramsEjPc @618
    _ZN4Jack19NetFloatAudioBufferD0Ev @619
    _ZN4Jack19NetFloatAudioBufferD1Ev @620
    _ZN4Jack19NetFloatAudioBufferD2Ev @621
    _ZN4Jack19PacketHeaderDisplayEPNS_14_packet_headerE @622
    _ZN4Jack20JackMidiReceiveQueueD0Ev @623
    _ZN4Jack20JackMidiReceiveQueueD1Ev @624
    _ZN4Jack20JackMidiReceiveQueueD2Ev @625
    _ZN4Jack20SessionParamsDisplayEPNS_15_session_paramsE @626
    _ZN4Jack21JackConnectionManager10DisconnectEjj @627
    _ZN4Jack21JackConnectionManager10InitRefNumEi @628
    _ZN4Jack21JackConnectionManager10ResetGraphEPNS_16JackClientTimingE @629
    _ZN4Jack21JackConnectionManager12AddInputPortEij @630
    _ZN4Jack21JackConnectionManager12ResumeRefNumEPNS_17JackClientControlEPNS_16JackWinSemaphoreEPNS_16JackClientTimingE @631
    _ZN4Jack21JackConnectionManager13AddOutputPortEij @632
    _ZN4Jack21JackConnectionManager13DirectConnectEii @633
    _ZN4Jack21JackConnectionManager13GetInputPortsEi @634
    _ZN4Jack21JackConnectionManager13SuspendRefNumEPNS_17JackClientControlEPNS_16JackWinSemaphoreEPNS_16JackClientTimingEl @635
    _ZN4Jack21JackConnectionManager14GetOutputPortsEi @636
    _ZN4Jack21JackConnectionManager15RemoveInputPortEij @637
    _ZN4Jack21JackConnectionManager15TopologicalSortERSt6vectorItSaItEE @638
    _ZN4Jack21JackConnectionManager16DirectDisconnectEii @639
    _ZN4Jack21JackConnectionManager16RemoveOutputPortEij @640
    _ZN4Jack21JackConnectionManager19DecDirectConnectionEjj @641
    _ZN4Jack21JackConnectionManager19IncDirectConnectionEjj @642
    _ZN4Jack21JackConnectionManager21DecFeedbackConnectionEjj @643
    _ZN4Jack21JackConnectionManager21IncFeedbackConnectionEjj @644
    _ZN4Jack21JackConnectionManager7ConnectEjj @645
    _ZN4Jack21JackConnectionManagerC1Ev @646
    _ZN4Jack21JackConnectionManagerC2Ev @647
    _ZN4Jack21JackConnectionManagerD1Ev @648
    _ZN4Jack21JackConnectionManagerD2Ev @649
    _ZN4Jack21JackNetSlaveInterface13InitRenderingEv @650
    _ZN4Jack21JackNetSlaveInterface13fSlaveCounterE @651 DATA
    _ZN4Jack21JackNetSlaveInterface14FatalRecvErrorEv @652
    _ZN4Jack21JackNetSlaveInterface14FatalSendErrorEv @653
    _ZN4Jack21JackNetSlaveInterface14InitConnectionEi @654
    _ZN4Jack21JackNetSlaveInterface16DecodeSyncPacketERi @655
    _ZN4Jack21JackNetSlaveInterface16EncodeSyncPacketEi @656
    _ZN4Jack21JackNetSlaveInterface17SendStartToMasterEv @657
    _ZN4Jack21JackNetSlaveInterface21SendAvailableToMasterEi @658
    _ZN4Jack21JackNetSlaveInterface4InitEv @659
    _ZN4Jack21JackNetSlaveInterface4RecvEyi @660
    _ZN4Jack21JackNetSlaveInterface4SendEyi @661
    _ZN4Jack21JackNetSlaveInterface7InitAPIEv @662
    _ZN4Jack21JackNetSlaveInterface8DataRecvEv @663
    _ZN4Jack21JackNetSlaveInterface8DataSendEv @664
    _ZN4Jack21JackNetSlaveInterface8SyncRecvEv @665
    _ZN4Jack21JackNetSlaveInterface8SyncSendEv @666
    _ZN4Jack21JackNetSlaveInterface9SetParamsEv @667
    _ZN4Jack22JackMidiAsyncWaitQueue12DequeueEventEj @668
    _ZN4Jack22JackMidiAsyncWaitQueue12DequeueEventEl @669
    _ZN4Jack22JackMidiAsyncWaitQueue12DequeueEventEv @670
    _ZN4Jack22JackMidiAsyncWaitQueue12EnqueueEventEjyPh @671
    _ZN4Jack22JackMidiAsyncWaitQueueC1Eyy @672
    _ZN4Jack22JackMidiAsyncWaitQueueC2Eyy @673
    _ZN4Jack22JackMidiAsyncWaitQueueD0Ev @674
    _ZN4Jack22JackMidiAsyncWaitQueueD1Ev @675
    _ZN4Jack22JackMidiAsyncWaitQueueD2Ev @676
    _ZN4Jack22JackNetMasterInterface14FatalRecvErrorEv @677
    _ZN4Jack22JackNetMasterInterface14FatalSendErrorEv @678
    _ZN4Jack22JackNetMasterInterface16DecodeSyncPacketERi @679
    _ZN4Jack22JackNetMasterInterface16EncodeSyncPacketEi @680
    _ZN4Jack22JackNetMasterInterface4ExitEv @681
    _ZN4Jack22JackNetMasterInterface4InitEv @682
    _ZN4Jack22JackNetMasterInterface4RecvEyi @683
    _ZN4Jack22JackNetMasterInterface4SendEyi @684
    _ZN4Jack22JackNetMasterInterface8DataRecvEv @685
    _ZN4Jack22JackNetMasterInterface8DataSendEv @686
    _ZN4Jack22JackNetMasterInterface8SyncRecvEv @687
    _ZN4Jack22JackNetMasterInterface8SyncSendEv @688
    _ZN4Jack22JackNetMasterInterface9SetParamsEv @689
    _ZN4Jack22JackWaitCallbackDriver11ExecuteRealEv @690
    _ZN4Jack22JackWaitCallbackDriverC1EPNS_19JackRestarterDriverE @691
    _ZN4Jack22JackWaitCallbackDriverC2EPNS_19JackRestarterDriverE @692
    _ZN4Jack22JackWaitThreadedDriver11ExecuteRealEv @693
    _ZN4Jack22JackWaitThreadedDriver4InitEv @694
    _ZN4Jack22JackWaitThreadedDriver7ExecuteEv @695
    _ZN4Jack22JackWinCriticalSection4LockEv @696
    _ZN4Jack22JackWinCriticalSection6UnlockEv @697
    _ZN4Jack22JackWinCriticalSection7TrylockEv @698
    _ZN4Jack23JackMidiBufferReadQueue12DequeueEventEv @699
    _ZN4Jack23JackMidiBufferReadQueue15ResetMidiBufferEPNS_14JackMidiBufferE @700
    _ZN4Jack23JackMidiBufferReadQueueC1Ev @701
    _ZN4Jack23JackMidiBufferReadQueueC2Ev @702
    _ZN4Jack23NetTransportDataDisplayEPNS_19_net_transport_dataE @703
    _ZN4Jack24JackMidiBufferWriteQueue12EnqueueEventEjyPh @704
    _ZN4Jack24JackMidiBufferWriteQueue15ResetMidiBufferEPNS_14JackMidiBufferEj @705
    _ZN4Jack24JackMidiBufferWriteQueueC1Ev @706
    _ZN4Jack24JackMidiBufferWriteQueueC2Ev @707
    _ZN4Jack25JackRestartThreadedDriver7ExecuteEv @708
    _ZN4Jack26JackMidiRawInputWriteQueue10RecordByteEh @709
    _ZN4Jack26JackMidiRawInputWriteQueue10WriteEventEj @710
    _ZN4Jack26JackMidiRawInputWriteQueue11ProcessByteEjh @711
    _ZN4Jack26JackMidiRawInputWriteQueue12EnqueueEventEjyPh @712
    _ZN4Jack26JackMidiRawInputWriteQueue12PrepareEventEjyPh @713
    _ZN4Jack26JackMidiRawInputWriteQueue15HandleEventLossEP17jack_midi_event_t @714
    _ZN4Jack26JackMidiRawInputWriteQueue16PrepareByteEventEjh @715
    _ZN4Jack26JackMidiRawInputWriteQueue17GetAvailableSpaceEv @716
    _ZN4Jack26JackMidiRawInputWriteQueue19HandleBufferFailureEyy @717
    _ZN4Jack26JackMidiRawInputWriteQueue20PrepareBufferedEventEj @718
    _ZN4Jack26JackMidiRawInputWriteQueue23HandleIncompleteMessageEy @719
    _ZN4Jack26JackMidiRawInputWriteQueue23HandleInvalidStatusByteEh @720
    _ZN4Jack26JackMidiRawInputWriteQueue24HandleUnexpectedSysexEndEy @721
    _ZN4Jack26JackMidiRawInputWriteQueue5ClearEv @722
    _ZN4Jack26JackMidiRawInputWriteQueue7ProcessEj @723
    _ZN4Jack26JackMidiRawInputWriteQueueC1EPNS_18JackMidiWriteQueueEyy @724
    _ZN4Jack26JackMidiRawInputWriteQueueC2EPNS_18JackMidiWriteQueueEyy @725
    _ZN4Jack26JackMidiRawInputWriteQueueD0Ev @726
    _ZN4Jack26JackMidiRawInputWriteQueueD1Ev @727
    _ZN4Jack26JackMidiRawInputWriteQueueD2Ev @728
    _ZN4Jack27JackMidiRawOutputWriteQueue12EnqueueEventEjyPh @729
    _ZN4Jack27JackMidiRawOutputWriteQueue14SendNonRTBytesEj @730
    _ZN4Jack27JackMidiRawOutputWriteQueue19HandleWriteQueueBugEjh @731
    _ZN4Jack27JackMidiRawOutputWriteQueue20DequeueRealtimeEventEv @732
    _ZN4Jack27JackMidiRawOutputWriteQueue23DequeueNonRealtimeEventEv @733
    _ZN4Jack27JackMidiRawOutputWriteQueue7ProcessEj @734
    _ZN4Jack27JackMidiRawOutputWriteQueue8SendByteEjh @735
    _ZN4Jack27JackMidiRawOutputWriteQueueC1EPNS_17JackMidiSendQueueEyyy @736
    _ZN4Jack27JackMidiRawOutputWriteQueueC2EPNS_17JackMidiSendQueueEyyy @737
    _ZN4Jack27JackMidiRawOutputWriteQueueD0Ev @738
    _ZN4Jack27JackMidiRawOutputWriteQueueD1Ev @739
    _ZN4Jack27JackMidiRawOutputWriteQueueD2Ev @740
    _ZN4Jack8JackPort10GetAliasesEPKPc @741
    _ZN4Jack8JackPort10MixBuffersEPPvij @742
    _ZN4Jack8JackPort10NameEqualsEPKc @743
    _ZN4Jack8JackPort10SetLatencyEj @744
    _ZN4Jack8JackPort10UnsetAliasEPKc @745
    _ZN4Jack8JackPort11ClearBufferEj @746
    _ZN4Jack8JackPort13EnsureMonitorEb @747
    _ZN4Jack8JackPort14RequestMonitorEb @748
    _ZN4Jack8JackPort15SetLatencyRangeE23JackLatencyCallbackModeP19_jack_latency_range @749
    _ZN4Jack8JackPort3TieEj @750
    _ZN4Jack8JackPort5UnTieEv @751
    _ZN4Jack8JackPort7ReleaseEv @752
    _ZN4Jack8JackPort7SetNameEPKc @753
    _ZN4Jack8JackPort8AllocateEiPKcS2_13JackPortFlags @754
    _ZN4Jack8JackPort8SetAliasEPKc @755
    _ZN4Jack8JackPortC1Ev @756
    _ZN4Jack8JackPortC2Ev @757
    _ZN4Jack9JackMMCSS11ffMMCSSFun1E @758 DATA
    _ZN4Jack9JackMMCSS11ffMMCSSFun2E @759 DATA
    _ZN4Jack9JackMMCSS11ffMMCSSFun3E @760 DATA
    _ZN4Jack9JackMMCSS12fHandleTableE @761 DATA
    _ZN4Jack9JackMMCSS17MMCSSDropRealTimeEPv @762
    _ZN4Jack9JackMMCSS20MMCSSAcquireRealTimeEPvi @763
    _ZN4Jack9JackMMCSS8fAvrtDllE @764 DATA
    _ZN4Jack9JackMMCSSC1Ev @765
    _ZN4Jack9JackMMCSSC2Ev @766
    _ZN4Jack9JackMMCSSD1Ev @767
    _ZN4Jack9JackMMCSSD2Ev @768
    _ZN4Jack9JackTimer11Frames2TimeEjj @769
    _ZN4Jack9JackTimer11Time2FramesEyj @770
    _ZN4Jack9JackTimer13GetCycleTimesEPjPyS2_Pf @771
    _ZN4Jack9JackTimer21FramesSinceCycleStartEyj @772
    _ZN4Jack9JackTimerC1Ev @773
    _ZN4Jack9JackTimerC2Ev @774
    _ZN4Jack9JackTools10KillServerEv @775
    _ZN4Jack9JackTools11RewriteNameEPKcPc @776
    _ZN4Jack9JackTools12CleanupFilesEPKc @777
    _ZN4Jack9JackTools17DefaultServerNameEv @778
    _ZN4Jack9JackTools5MkDirEPKc @779
    _ZN4Jack9JackTools6GetPIDEv @780
    _ZN4Jack9JackTools6GetUIDEv @781
    _ZN4Jack9JackTools7UserDirEv @782
    _ZN4Jack9JackTools9GetTmpdirEv @783
    _ZN4Jack9JackTools9ServerDirEPKcPc @784
    _ZNK4Jack10JackDriver10IsRealTimeEv @785
    _ZNK4Jack10JackDriver16GetClientControlEv @786
    _ZNK4Jack14JackMidiBuffer12MaxEventSizeEv @787
    _ZNK4Jack18JackThreadedDriver10IsRealTimeEv @788
    _ZNK4Jack18JackThreadedDriver16GetClientControlEv @789
    _ZNK4Jack18JackThreadedDriver9IsRunningEv @790
    _ZNK4Jack21JackConnectionManager10IsLoopPathEjj @791
    _ZNK4Jack21JackConnectionManager11IsConnectedEjj @792
    _ZNK4Jack21JackConnectionManager13IsLoopPathAuxEii @793
    _ZNK4Jack21JackConnectionManager14GetConnectionsEj @794
    _ZNK4Jack21JackConnectionManager14GetInputRefNumEj @795
    _ZNK4Jack21JackConnectionManager15GetOutputRefNumEj @796
    _ZNK4Jack21JackConnectionManager18IsDirectConnectionEii @797
    _ZNK4Jack21JackConnectionManager20IsFeedbackConnectionEjj @798
    _ZNK4Jack8JackPort10GetLatencyEv @799
    _ZNK4Jack8JackPort12GetShortNameEv @800
    _ZNK4Jack8JackPort15GetLatencyRangeE23JackLatencyCallbackModeP19_jack_latency_range @801
    _ZNK4Jack8JackPort15GetTotalLatencyEv @802
    _ZNK4Jack8JackPort7GetNameEv @803
    _ZNK4Jack8JackPort7GetTypeEv @804
    _ZNK4Jack8JackPort8GetFlagsEv @805
    _ZNK4Jack8JackPort9GetRefNumEv @806
    _ZTIN4Jack10JackClientE @807 DATA
    _ZTIN4Jack10JackDriverE @808 DATA
    _ZTIN4Jack12JackWinMutexE @809 DATA
    _ZTIN4Jack13JackExceptionE @810 DATA
    _ZTIN4Jack14JackMidiDriverE @811 DATA
    _ZTIN4Jack14NetAudioBufferE @812 DATA
    _ZTIN4Jack15JackAudioDriverE @813 DATA
    _ZTIN4Jack15JackTimedDriverE @814 DATA
    _ZTIN4Jack16JackBaseWinMutexE @815 DATA
    _ZTIN4Jack16JackNetExceptionE @816 DATA
    _ZTIN4Jack16JackNetInterfaceE @817 DATA
    _ZTIN4Jack16JackWaiterDriverE @818 DATA
    _ZTIN4Jack17JackMidiReadQueueE @819 DATA
    _ZTIN4Jack17JackMidiSendQueueE @820 DATA
    _ZTIN4Jack17JackQuitExceptionE @821 DATA
    _ZTIN4Jack17NetIntAudioBufferE @822 DATA
    _ZTIN4Jack18JackMidiAsyncQueueE @823 DATA
    _ZTIN4Jack18JackMidiWriteQueueE @824 DATA
    _ZTIN4Jack18JackThreadedDriverE @825 DATA
    _ZTIN4Jack18NetOpusAudioBufferE @826 DATA
    _ZTIN4Jack19JackClientInterfaceE @827 DATA
    _ZTIN4Jack19JackDriverInterfaceE @828 DATA
    _ZTIN4Jack19JackRestarterDriverE @829 DATA
    _ZTIN4Jack19NetFloatAudioBufferE @830 DATA
    _ZTIN4Jack20JackMidiReceiveQueueE @831 DATA
    _ZTIN4Jack21JackNetSlaveInterfaceE @832 DATA
    _ZTIN4Jack22JackMidiAsyncWaitQueueE @833 DATA
    _ZTIN4Jack22JackNetMasterInterfaceE @834 DATA
    _ZTIN4Jack22JackTemporaryExceptionE @835 DATA
    _ZTIN4Jack22JackWaitCallbackDriverE @836 DATA
    _ZTIN4Jack22JackWaitThreadedDriverE @837 DATA
    _ZTIN4Jack22JackWinCriticalSectionE @838 DATA
    _ZTIN4Jack23JackMidiBufferReadQueueE @839 DATA
    _ZTIN4Jack24JackMidiBufferWriteQueueE @840 DATA
    _ZTIN4Jack25JackDriverClientInterfaceE @841 DATA
    _ZTIN4Jack25JackRestartThreadedDriverE @842 DATA
    _ZTIN4Jack26JackMidiRawInputWriteQueueE @843 DATA
    _ZTIN4Jack27JackMidiRawOutputWriteQueueE @844 DATA
    _ZTVN4Jack10JackClientE @845 DATA
    _ZTVN4Jack10JackDriverE @846 DATA
    _ZTVN4Jack12JackWinMutexE @847 DATA
    _ZTVN4Jack13JackExceptionE @848 DATA
    _ZTVN4Jack14JackMidiDriverE @849 DATA
    _ZTVN4Jack14NetAudioBufferE @850 DATA
    _ZTVN4Jack15JackAudioDriverE @851 DATA
    _ZTVN4Jack15JackTimedDriverE @852 DATA
    _ZTVN4Jack16JackBaseWinMutexE @853 DATA
    _ZTVN4Jack16JackNetExceptionE @854 DATA
    _ZTVN4Jack16JackNetInterfaceE @855 DATA
    _ZTVN4Jack16JackWaiterDriverE @856 DATA
    _ZTVN4Jack17JackMidiReadQueueE @857 DATA
    _ZTVN4Jack17JackMidiSendQueueE @858 DATA
    _ZTVN4Jack17JackQuitExceptionE @859 DATA
    _ZTVN4Jack17NetIntAudioBufferE @860 DATA
    _ZTVN4Jack18JackMidiAsyncQueueE @861 DATA
    _ZTVN4Jack18JackMidiWriteQueueE @862 DATA
    _ZTVN4Jack18JackThreadedDriverE @863 DATA
    _ZTVN4Jack18NetOpusAudioBufferE @864 DATA
    _ZTVN4Jack19JackClientInterfaceE @865 DATA
    _ZTVN4Jack19JackDriverInterfaceE @866 DATA
    _ZTVN4Jack19JackRestarterDriverE @867 DATA
    _ZTVN4Jack19NetFloatAudioBufferE @868 DATA
    _ZTVN4Jack20JackMidiReceiveQueueE @869 DATA
    _ZTVN4Jack21JackNetSlaveInterfaceE @870 DATA
    _ZTVN4Jack22JackMidiAsyncWaitQueueE @871 DATA
    _ZTVN4Jack22JackNetMasterInterfaceE @872 DATA
    _ZTVN4Jack22JackTemporaryExceptionE @873 DATA
    _ZTVN4Jack22JackWaitCallbackDriverE @874 DATA
    _ZTVN4Jack22JackWaitThreadedDriverE @875 DATA
    _ZTVN4Jack22JackWinCriticalSectionE @876 DATA
    _ZTVN4Jack23JackMidiBufferReadQueueE @877 DATA
    _ZTVN4Jack24JackMidiBufferWriteQueueE @878 DATA
    _ZTVN4Jack25JackDriverClientInterfaceE @879 DATA
    _ZTVN4Jack25JackRestartThreadedDriverE @880 DATA
    _ZTVN4Jack26JackMidiRawInputWriteQueueE @881 DATA
    _ZTVN4Jack27JackMidiRawOutputWriteQueueE @882 DATA
    _ZThn16_N4Jack18JackThreadedDriver4InitEv @883
    _ZThn16_N4Jack18JackThreadedDriver7ExecuteEv @884
    _ZThn16_N4Jack18JackThreadedDriverD0Ev @885
    _ZThn16_N4Jack18JackThreadedDriverD1Ev @886
    _ZThn16_N4Jack22JackWaitCallbackDriverD0Ev @887
    _ZThn16_N4Jack22JackWaitCallbackDriverD1Ev @888
    _ZThn16_N4Jack22JackWaitThreadedDriver4InitEv @889
    _ZThn16_N4Jack22JackWaitThreadedDriver7ExecuteEv @890
    _ZThn16_N4Jack22JackWaitThreadedDriverD0Ev @891
    _ZThn16_N4Jack22JackWaitThreadedDriverD1Ev @892
    _ZThn16_N4Jack25JackRestartThreadedDriver7ExecuteEv @893
    _ZThn16_N4Jack25JackRestartThreadedDriverD0Ev @894
    _ZThn16_N4Jack25JackRestartThreadedDriverD1Ev @895
    _ZThn8_N4Jack10JackClient4InitEv @896
    _ZThn8_N4Jack10JackClient7ExecuteEv @897
    _ZThn8_N4Jack10JackClientD0Ev @898
    _ZThn8_N4Jack10JackClientD1Ev @899
    _ZThn8_N4Jack10JackDriver12ClientNotifyEiPKciiS2_ii @900
    _ZThn8_N4Jack10JackDriver5CloseEv @901
    _ZThn8_N4Jack10JackDriverD0Ev @902
    _ZThn8_N4Jack10JackDriverD1Ev @903
    _ZThn8_N4Jack14JackMidiDriverD0Ev @904
    _ZThn8_N4Jack14JackMidiDriverD1Ev @905
    _ZThn8_N4Jack15JackAudioDriver12ClientNotifyEiPKciiS2_ii @906
    _ZThn8_N4Jack15JackAudioDriverD0Ev @907
    _ZThn8_N4Jack15JackAudioDriverD1Ev @908
    _ZThn8_N4Jack15JackTimedDriverD0Ev @909
    _ZThn8_N4Jack15JackTimedDriverD1Ev @910
    _ZThn8_N4Jack16JackWaiterDriverD0Ev @911
    _ZThn8_N4Jack16JackWaiterDriverD1Ev @912
    _ZThn8_N4Jack18JackMidiAsyncQueue12EnqueueEventEjyPh @913
    _ZThn8_N4Jack18JackMidiAsyncQueueD0Ev @914
    _ZThn8_N4Jack18JackMidiAsyncQueueD1Ev @915
    _ZThn8_N4Jack18JackThreadedDriver12ClientNotifyEiPKciiS2_ii @916
    _ZThn8_N4Jack18JackThreadedDriver5CloseEv @917
    _ZThn8_N4Jack18JackThreadedDriverD0Ev @918
    _ZThn8_N4Jack18JackThreadedDriverD1Ev @919
    _ZThn8_N4Jack19JackRestarterDriverD0Ev @920
    _ZThn8_N4Jack19JackRestarterDriverD1Ev @921
    _ZThn8_N4Jack22JackMidiAsyncWaitQueue12EnqueueEventEjyPh @922
    _ZThn8_N4Jack22JackMidiAsyncWaitQueueD0Ev @923
    _ZThn8_N4Jack22JackMidiAsyncWaitQueueD1Ev @924
    _ZThn8_N4Jack22JackWaitCallbackDriverD0Ev @925
    _ZThn8_N4Jack22JackWaitCallbackDriverD1Ev @926
    _ZThn8_N4Jack22JackWaitThreadedDriverD0Ev @927
    _ZThn8_N4Jack22JackWaitThreadedDriverD1Ev @928
    _ZThn8_N4Jack25JackRestartThreadedDriverD0Ev @929
    _ZThn8_N4Jack25JackRestartThreadedDriverD1Ev @930
    _ZThn8_NK4Jack10JackDriver16GetClientControlEv @931
    _ZThn8_NK4Jack18JackThreadedDriver16GetClientControlEv @932
    default_jack_error_callback @933
    default_jack_info_callback @934
    jack_acquire_real_time_scheduling @935
    jack_activate @936
    jack_client_close @937
    jack_client_create_thread @938
    jack_client_get_uuid @939
    jack_client_has_session_callback @940
    jack_client_kill_thread @941
    jack_client_max_real_time_priority @942
    jack_client_name_size @943
    jack_client_new @944
    jack_client_open @945
    jack_client_real_time_priority @946
    jack_client_stop_thread @947
    jack_client_thread_id @948
    jack_client_uuid_generate @949
    jack_connect @950
    jack_constraint_add_enum @951
    jack_constraint_compose_enum_char @952
    jack_constraint_compose_enum_sint32 @953
    jack_constraint_compose_enum_str @954
    jack_constraint_compose_enum_uint32 @955
    jack_constraint_free @956
    jack_cpu_load @957
    jack_cycle_signal @958
    jack_cycle_wait @959
    jack_deactivate @960
    jack_disconnect @961
    jack_driver_descriptor_add_parameter @962
    jack_driver_descriptor_construct @963
    jack_drop_real_time_scheduling @964
    jack_engine_takeover_timebase @965
    jack_error @966
    jack_error_callback @967 DATA
    jack_frame_time @968
    jack_frames_since_cycle_start @969
    jack_frames_to_time @970
    jack_free @971
    jack_get_buffer_size @972
    jack_get_client_name @973
    jack_get_client_name_by_uuid @974
    jack_get_client_pid @975
    jack_get_current_transport_frame @976
    jack_get_cycle_times @977
    jack_get_internal_client_name @978
    jack_get_max_delayed_usecs @979
    jack_get_ports @980
    jack_get_sample_rate @981
    jack_get_time @982
    jack_get_transport_info @983
    jack_get_uuid_for_client_name @984
    jack_get_version @985
    jack_get_version_string @986
    jack_get_xrun_delayed_usecs @987
    jack_info @988
    jack_info_callback @989 DATA
    jack_internal_client_close @990
    jack_internal_client_handle @991
    jack_internal_client_load @992
    jack_internal_client_new @993
    jack_internal_client_unload @994
    jack_is_realtime @995
    jack_last_frame_time @996
    jack_log @997
    jack_midi_clear_buffer @998
    jack_midi_event_get @999
    jack_midi_event_reserve @1000
    jack_midi_event_write @1001
    jack_midi_get_event_count @1002
    jack_midi_get_lost_event_count @1003
    jack_midi_max_event_size @1004
    jack_midi_reset_buffer @1005
    jack_on_info_shutdown @1006
    jack_on_shutdown @1007
    jack_port_by_id @1008
    jack_port_by_name @1009
    jack_port_connected @1010
    jack_port_connected_to @1011
    jack_port_disconnect @1012
    jack_port_ensure_monitor @1013
    jack_port_flags @1014
    jack_port_get_aliases @1015
    jack_port_get_all_connections @1016
    jack_port_get_buffer @1017
    jack_port_get_connections @1018
    jack_port_get_latency @1019
    jack_port_get_latency_range @1020
    jack_port_get_total_latency @1021
    jack_port_is_mine @1022
    jack_port_monitoring_input @1023
    jack_port_name @1024
    jack_port_name_size @1025
    jack_port_register @1026
    jack_port_rename @1027
    jack_port_request_monitor @1028
    jack_port_request_monitor_by_name @1029
    jack_port_set_alias @1030
    jack_port_set_latency @1031
    jack_port_set_latency_range @1032
    jack_port_set_name @1033
    jack_port_short_name @1034
    jack_port_tie @1035
    jack_port_type @1036
    jack_port_type_get_buffer_size @1037
    jack_port_type_id @1038
    jack_port_type_size @1039
    jack_port_unregister @1040
    jack_port_unset_alias @1041
    jack_port_untie @1042
    jack_port_uuid @1043
    jack_port_uuid_generate @1044
    jack_recompute_total_latencies @1045
    jack_recompute_total_latency @1046
    jack_release_timebase @1047
    jack_reserve_client_name @1048
    jack_reset_max_delayed_usecs @1049
    jack_ringbuffer_create @1050
    jack_ringbuffer_free @1051
    jack_ringbuffer_get_read_vector @1052
    jack_ringbuffer_get_write_vector @1053
    jack_ringbuffer_mlock @1054
    jack_ringbuffer_peek @1055
    jack_ringbuffer_read @1056
    jack_ringbuffer_read_advance @1057
    jack_ringbuffer_read_space @1058
    jack_ringbuffer_reset @1059
    jack_ringbuffer_reset_size @1060
    jack_ringbuffer_write @1061
    jack_ringbuffer_write_advance @1062
    jack_ringbuffer_write_space @1063
    jack_session_commands_free @1064
    jack_session_event_free @1065
    jack_session_notify @1066
    jack_session_reply @1067
    jack_set_buffer_size @1068
    jack_set_buffer_size_callback @1069
    jack_set_client_registration_callback @1070
    jack_set_error_function @1071
    jack_set_freewheel @1072
    jack_set_freewheel_callback @1073
    jack_set_graph_order_callback @1074
    jack_set_info_function @1075
    jack_set_latency_callback @1076
    jack_set_port_connect_callback @1077
    jack_set_port_registration_callback @1078
    jack_set_port_rename_callback @1079
    jack_set_process_callback @1080
    jack_set_process_thread @1081
    jack_set_sample_rate_callback @1082
    jack_set_session_callback @1083
    jack_set_sync_callback @1084
    jack_set_sync_timeout @1085
    jack_set_thread_init_callback @1086
    jack_set_timebase_callback @1087
    jack_set_transport_info @1088
    jack_set_xrun_callback @1089
    jack_thread_wait @1090
    jack_time_to_frames @1091
    jack_transport_locate @1092
    jack_transport_query @1093
    jack_transport_reposition @1094
    jack_transport_start @1095
    jack_transport_stop @1096
    jack_uuid_clear @1097
    jack_uuid_compare @1098
    jack_uuid_copy @1099
    jack_uuid_empty @1100
    jack_uuid_parse @1101
    jack_uuid_to_index @1102
    jack_uuid_unparse @1103
    jackctl_driver_get_name @1104
    jackctl_driver_get_parameters @1105
    jackctl_driver_get_type @1106
    jackctl_driver_params_parse @1107
    jackctl_internal_get_name @1108
    jackctl_internal_get_parameters @1109
    jackctl_parameter_constraint_is_fake_value @1110
    jackctl_parameter_constraint_is_strict @1111
    jackctl_parameter_get_default_value @1112
    jackctl_parameter_get_enum_constraint_description @1113
    jackctl_parameter_get_enum_constraint_value @1114
    jackctl_parameter_get_enum_constraints_count @1115
    jackctl_parameter_get_id @1116
    jackctl_parameter_get_long_description @1117
    jackctl_parameter_get_name @1118
    jackctl_parameter_get_range_constraint @1119
    jackctl_parameter_get_short_description @1120
    jackctl_parameter_get_type @1121
    jackctl_parameter_get_value @1122
    jackctl_parameter_has_enum_constraint @1123
    jackctl_parameter_has_range_constraint @1124
    jackctl_parameter_is_set @1125
    jackctl_parameter_reset @1126
    jackctl_parameter_set_value @1127
    jackctl_server_add_slave @1128
    jackctl_server_close @1129
    jackctl_server_create @1130
    jackctl_server_create2 @1131
    jackctl_server_destroy @1132
    jackctl_server_get_drivers_list @1133
    jackctl_server_get_internals_list @1134
    jackctl_server_get_parameters @1135
    jackctl_server_load_internal @1136
    jackctl_server_load_session_file @1137
    jackctl_server_open @1138
    jackctl_server_remove_slave @1139
    jackctl_server_start @1140
    jackctl_server_stop @1141
    jackctl_server_switch_master @1142
    jackctl_server_unload_internal @1143
    jackctl_setup_signals @1144
    jackctl_wait_signals @1145
    set_threaded_log_function @1146
    silent_jack_error_callback @1147
    silent_jack_info_callback @1148
