EXPORTS
    EndTime @1
    GetMicroSeconds @2
    InitTime @3
    JackSleep @4
    _ZN4Jack10PrintErrorEi @5
    _ZN4Jack10ThreadExitEv @6
    _ZN4Jack11GetHostNameEPci @7
    _ZN4Jack12SocketAPIEndEv @8
    _ZN4Jack13GetPacketTypeEPNS_15_session_paramsE @9
    _ZN4Jack13JackException12PrintMessageEv @10
    _ZN4Jack13JackWinThread11GetThreadIDEv @11
    _ZN4Jack13JackWinThread12DropRealTimeEv @12
    _ZN4Jack13JackWinThread13ThreadHandlerEPv @13
    _ZN4Jack13JackWinThread15AcquireRealTimeEi @14
    _ZN4Jack13JackWinThread15AcquireRealTimeEv @15
    _ZN4Jack13JackWinThread15DropRealTimeImpEPv @16
    _ZN4Jack13JackWinThread16DropSelfRealTimeEv @17
    _ZN4Jack13JackWinThread18AcquireRealTimeImpEPvi @18
    _ZN4Jack13JackWinThread19AcquireSelfRealTimeEi @19
    _ZN4Jack13JackWinThread19AcquireSelfRealTimeEv @20
    _ZN4Jack13JackWinThread4KillEv @21
    _ZN4Jack13JackWinThread4StopEv @22
    _ZN4Jack13JackWinThread5StartEv @23
    _ZN4Jack13JackWinThread7KillImpEPv @24
    _ZN4Jack13JackWinThread7StopImpEPv @25
    _ZN4Jack13JackWinThread8IsThreadEv @26
    _ZN4Jack13JackWinThread8StartImpEPPviiPFmS1_ES1_ @27
    _ZN4Jack13JackWinThread9StartSyncEv @28
    _ZN4Jack13JackWinThread9TerminateEv @29
    _ZN4Jack13JackWinThreadC1EPNS_21JackRunnableInterfaceE @30
    _ZN4Jack13JackWinThreadC2EPNS_21JackRunnableInterfaceE @31
    _ZN4Jack13JackWinThreadD1Ev @32
    _ZN4Jack13JackWinThreadD2Ev @33
    _ZN4Jack13NetMidiBuffer12GetCycleSizeEv @34
    _ZN4Jack13NetMidiBuffer13DisplayEventsEv @35
    _ZN4Jack13NetMidiBuffer13GetNumPacketsEii @36
    _ZN4Jack13NetMidiBuffer15RenderToNetworkEiy @37
    _ZN4Jack13NetMidiBuffer17RenderFromNetworkEiy @38
    _ZN4Jack13NetMidiBuffer17RenderToJackPortsEv @39
    _ZN4Jack13NetMidiBuffer19RenderFromJackPortsEv @40
    _ZN4Jack13NetMidiBuffer9GetBufferEi @41
    _ZN4Jack13NetMidiBuffer9SetBufferEiPNS_14JackMidiBufferE @42
    _ZN4Jack13NetMidiBufferC1EPNS_15_session_paramsEjPc @43
    _ZN4Jack13NetMidiBufferC2EPNS_15_session_paramsEjPc @44
    _ZN4Jack13NetMidiBufferD1Ev @45
    _ZN4Jack13NetMidiBufferD2Ev @46
    _ZN4Jack13SetPacketTypeEPNS_15_session_paramsENS_17_sync_packet_typeE @47
    _ZN4Jack13SocketAPIInitEv @48
    _ZN4Jack14MidiBufferHToNEPNS_14JackMidiBufferES1_ @49
    _ZN4Jack14MidiBufferNToHEPNS_14JackMidiBufferES1_ @50
    _ZN4Jack14NetAudioBuffer11CheckPacketEii @51
    _ZN4Jack14NetAudioBuffer17RenderToJackPortsEi @52
    _ZN4Jack14NetAudioBuffer19RenderFromJackPortsEi @53
    _ZN4Jack14NetAudioBuffer20ActivePortsToNetworkEPc @54
    _ZN4Jack14NetAudioBuffer22ActivePortsFromNetworkEPcj @55
    _ZN4Jack14NetAudioBuffer7CleanupEv @56
    _ZN4Jack14NetAudioBuffer9GetBufferEi @57
    _ZN4Jack14NetAudioBuffer9NextCycleEv @58
    _ZN4Jack14NetAudioBuffer9SetBufferEiPf @59
    _ZN4Jack14NetAudioBufferC1EPNS_15_session_paramsEjPc @60
    _ZN4Jack14NetAudioBufferC2EPNS_15_session_paramsEjPc @61
    _ZN4Jack14NetAudioBufferD0Ev @62
    _ZN4Jack14NetAudioBufferD1Ev @63
    _ZN4Jack14NetAudioBufferD2Ev @64
    _ZN4Jack16JackNetInterface10FinishRecvEPNS_14NetAudioBufferE @65
    _ZN4Jack16JackNetInterface10InitializeEv @66
    _ZN4Jack16JackNetInterface13SetRcvTimeOutEv @67
    _ZN4Jack16JackNetInterface16SetNetBufferSizeEv @68
    _ZN4Jack16JackNetInterface18AudioBufferFactoryEiPc @69
    _ZN4Jack16JackNetInterface18FreeNetworkBuffersEv @70
    _ZN4Jack16JackNetInterface8MidiRecvEPNS_14_packet_headerEPNS_13NetMidiBufferERj @71
    _ZN4Jack16JackNetInterface8MidiSendEPNS_13NetMidiBufferEii @72
    _ZN4Jack16JackNetInterface9AudioRecvEPNS_14_packet_headerEPNS_14NetAudioBufferE @73
    _ZN4Jack16JackNetInterface9AudioSendEPNS_14NetAudioBufferEi @74
    _ZN4Jack16JackNetInterface9SetParamsEv @75
    _ZN4Jack16JackNetInterfaceC1EPKci @76
    _ZN4Jack16JackNetInterfaceC1ERNS_15_session_paramsERNS_16JackNetWinSocketEPKc @77
    _ZN4Jack16JackNetInterfaceC1Ev @78
    _ZN4Jack16JackNetInterfaceC2EPKci @79
    _ZN4Jack16JackNetInterfaceC2ERNS_15_session_paramsERNS_16JackNetWinSocketEPKc @80
    _ZN4Jack16JackNetInterfaceC2Ev @81
    _ZN4Jack16JackNetInterfaceD0Ev @82
    _ZN4Jack16JackNetInterfaceD1Ev @83
    _ZN4Jack16JackNetInterfaceD2Ev @84
    _ZN4Jack16JackNetWinSocket10SetAddressEPKci @85
    _ZN4Jack16JackNetWinSocket10SetTimeOutEi @86
    _ZN4Jack16JackNetWinSocket12SetLocalLoopEv @87
    _ZN4Jack16JackNetWinSocket14JoinMCastGroupEPKc @88
    _ZN4Jack16JackNetWinSocket4BindEv @89
    _ZN4Jack16JackNetWinSocket4RecvEPvyi @90
    _ZN4Jack16JackNetWinSocket4SendEPKvyi @91
    _ZN4Jack16JackNetWinSocket5CloseEv @92
    _ZN4Jack16JackNetWinSocket5ResetEv @93
    _ZN4Jack16JackNetWinSocket6SendToEPKvyi @94
    _ZN4Jack16JackNetWinSocket6SendToEPKvyiPKc @95
    _ZN4Jack16JackNetWinSocket7ConnectEv @96
    _ZN4Jack16JackNetWinSocket7GetNameEPc @97
    _ZN4Jack16JackNetWinSocket7GetPortEv @98
    _ZN4Jack16JackNetWinSocket7IsLocalEPc @99
    _ZN4Jack16JackNetWinSocket8BindWithEPKc @100
    _ZN4Jack16JackNetWinSocket8BindWithEi @101
    _ZN4Jack16JackNetWinSocket8GetErrorEv @102
    _ZN4Jack16JackNetWinSocket8IsSocketEv @103
    _ZN4Jack16JackNetWinSocket8RecvFromEPvyi @104
    _ZN4Jack16JackNetWinSocket8SetPortAEi @105
    _ZN4Jack16JackNetWinSocket9CatchHostEPvyi @106
    _ZN4Jack16JackNetWinSocket9ConnectToEPKc @107
    _ZN4Jack16JackNetWinSocket9GetOptionEiiPvPi @108
    _ZN4Jack16JackNetWinSocket9GetRecvIPEv @109
    _ZN4Jack16JackNetWinSocket9GetSendIPEv @110
    _ZN4Jack16JackNetWinSocket9NewSocketEv @111
    _ZN4Jack16JackNetWinSocket9SetOptionEiiPKvi @112
    _ZN4Jack16JackNetWinSocketC1EPKci @113
    _ZN4Jack16JackNetWinSocketC1ERKS0_ @114
    _ZN4Jack16JackNetWinSocketC1Ev @115
    _ZN4Jack16JackNetWinSocketC2EPKci @116
    _ZN4Jack16JackNetWinSocketC2ERKS0_ @117
    _ZN4Jack16JackNetWinSocketC2Ev @118
    _ZN4Jack16JackNetWinSocketD1Ev @119
    _ZN4Jack16JackNetWinSocketD2Ev @120
    _ZN4Jack16JackNetWinSocketaSERKS0_ @121
    _ZN4Jack16PacketHeaderHToNEPNS_14_packet_headerES1_ @122
    _ZN4Jack16PacketHeaderNToHEPNS_14_packet_headerES1_ @123
    _ZN4Jack17GetTransportStateEi @124
    _ZN4Jack17NetIntAudioBuffer12GetCycleSizeEv @125
    _ZN4Jack17NetIntAudioBuffer13GetNumPacketsEi @126
    _ZN4Jack17NetIntAudioBuffer15RenderToNetworkEij @127
    _ZN4Jack17NetIntAudioBuffer16GetCycleDurationEv @128
    _ZN4Jack17NetIntAudioBuffer17RenderFromNetworkEiij @129
    _ZN4Jack17NetIntAudioBuffer17RenderToJackPortsEi @130
    _ZN4Jack17NetIntAudioBuffer19RenderFromJackPortsEi @131
    _ZN4Jack17NetIntAudioBufferC1EPNS_15_session_paramsEjPc @132
    _ZN4Jack17NetIntAudioBufferC2EPNS_15_session_paramsEjPc @133
    _ZN4Jack17NetIntAudioBufferD0Ev @134
    _ZN4Jack17NetIntAudioBufferD1Ev @135
    _ZN4Jack17NetIntAudioBufferD2Ev @136
    _ZN4Jack17SessionParamsHToNEPNS_15_session_paramsES1_ @137
    _ZN4Jack17SessionParamsNToHEPNS_15_session_paramsES1_ @138
    _ZN4Jack17TransportDataHToNEPNS_19_net_transport_dataES1_ @139
    _ZN4Jack17TransportDataNToHEPNS_19_net_transport_dataES1_ @140
    _ZN4Jack18NetOpusAudioBuffer12GetCycleSizeEv @141
    _ZN4Jack18NetOpusAudioBuffer13GetNumPacketsEi @142
    _ZN4Jack18NetOpusAudioBuffer15RenderToNetworkEij @143
    _ZN4Jack18NetOpusAudioBuffer16GetCycleDurationEv @144
    _ZN4Jack18NetOpusAudioBuffer17RenderFromNetworkEiij @145
    _ZN4Jack18NetOpusAudioBuffer17RenderToJackPortsEi @146
    _ZN4Jack18NetOpusAudioBuffer19RenderFromJackPortsEi @147
    _ZN4Jack18NetOpusAudioBuffer8FreeOpusEv @148
    _ZN4Jack18NetOpusAudioBufferC1EPNS_15_session_paramsEjPci @149
    _ZN4Jack18NetOpusAudioBufferC2EPNS_15_session_paramsEjPci @150
    _ZN4Jack18NetOpusAudioBufferD0Ev @151
    _ZN4Jack18NetOpusAudioBufferD1Ev @152
    _ZN4Jack18NetOpusAudioBufferD2Ev @153
    _ZN4Jack19NetFloatAudioBuffer12GetCycleSizeEv @154
    _ZN4Jack19NetFloatAudioBuffer12UpdateParamsEi @155
    _ZN4Jack19NetFloatAudioBuffer13GetNumPacketsEi @156
    _ZN4Jack19NetFloatAudioBuffer15RenderToNetworkEPcii @157
    _ZN4Jack19NetFloatAudioBuffer15RenderToNetworkEij @158
    _ZN4Jack19NetFloatAudioBuffer16GetCycleDurationEv @159
    _ZN4Jack19NetFloatAudioBuffer17RenderFromNetworkEPcii @160
    _ZN4Jack19NetFloatAudioBuffer17RenderFromNetworkEiij @161
    _ZN4Jack19NetFloatAudioBufferC1EPNS_15_session_paramsEjPc @162
    _ZN4Jack19NetFloatAudioBufferC2EPNS_15_session_paramsEjPc @163
    _ZN4Jack19NetFloatAudioBufferD0Ev @164
    _ZN4Jack19NetFloatAudioBufferD1Ev @165
    _ZN4Jack19NetFloatAudioBufferD2Ev @166
    _ZN4Jack19PacketHeaderDisplayEPNS_14_packet_headerE @167
    _ZN4Jack20SessionParamsDisplayEPNS_15_session_paramsE @168
    _ZN4Jack21JackNetSlaveInterface13InitRenderingEv @169
    _ZN4Jack21JackNetSlaveInterface13fSlaveCounterE @170 DATA
    _ZN4Jack21JackNetSlaveInterface14FatalRecvErrorEv @171
    _ZN4Jack21JackNetSlaveInterface14FatalSendErrorEv @172
    _ZN4Jack21JackNetSlaveInterface14InitConnectionEi @173
    _ZN4Jack21JackNetSlaveInterface16DecodeSyncPacketERi @174
    _ZN4Jack21JackNetSlaveInterface16EncodeSyncPacketEi @175
    _ZN4Jack21JackNetSlaveInterface17SendStartToMasterEv @176
    _ZN4Jack21JackNetSlaveInterface21SendAvailableToMasterEi @177
    _ZN4Jack21JackNetSlaveInterface4InitEv @178
    _ZN4Jack21JackNetSlaveInterface4RecvEyi @179
    _ZN4Jack21JackNetSlaveInterface4SendEyi @180
    _ZN4Jack21JackNetSlaveInterface7InitAPIEv @181
    _ZN4Jack21JackNetSlaveInterface8DataRecvEv @182
    _ZN4Jack21JackNetSlaveInterface8DataSendEv @183
    _ZN4Jack21JackNetSlaveInterface8SyncRecvEv @184
    _ZN4Jack21JackNetSlaveInterface8SyncSendEv @185
    _ZN4Jack21JackNetSlaveInterface9SetParamsEv @186
    _ZN4Jack22JackNetMasterInterface14FatalRecvErrorEv @187
    _ZN4Jack22JackNetMasterInterface14FatalSendErrorEv @188
    _ZN4Jack22JackNetMasterInterface16DecodeSyncPacketERi @189
    _ZN4Jack22JackNetMasterInterface16EncodeSyncPacketEi @190
    _ZN4Jack22JackNetMasterInterface4ExitEv @191
    _ZN4Jack22JackNetMasterInterface4InitEv @192
    _ZN4Jack22JackNetMasterInterface4RecvEyi @193
    _ZN4Jack22JackNetMasterInterface4SendEyi @194
    _ZN4Jack22JackNetMasterInterface8DataRecvEv @195
    _ZN4Jack22JackNetMasterInterface8DataSendEv @196
    _ZN4Jack22JackNetMasterInterface8SyncRecvEv @197
    _ZN4Jack22JackNetMasterInterface8SyncSendEv @198
    _ZN4Jack22JackNetMasterInterface9SetParamsEv @199
    _ZN4Jack23NetTransportDataDisplayEPNS_19_net_transport_dataE @200
    _ZN4Jack9JackMMCSS11ffMMCSSFun1E @201 DATA
    _ZN4Jack9JackMMCSS11ffMMCSSFun2E @202 DATA
    _ZN4Jack9JackMMCSS11ffMMCSSFun3E @203 DATA
    _ZN4Jack9JackMMCSS12fHandleTableE @204 DATA
    _ZN4Jack9JackMMCSS17MMCSSDropRealTimeEPv @205
    _ZN4Jack9JackMMCSS20MMCSSAcquireRealTimeEPvi @206
    _ZN4Jack9JackMMCSS8fAvrtDllE @207 DATA
    _ZN4Jack9JackMMCSSC1Ev @208
    _ZN4Jack9JackMMCSSC2Ev @209
    _ZN4Jack9JackMMCSSD1Ev @210
    _ZN4Jack9JackMMCSSD2Ev @211
    _ZTIN4Jack12JackWinMutexE @212 DATA
    _ZTIN4Jack13JackExceptionE @213 DATA
    _ZTIN4Jack14NetAudioBufferE @214 DATA
    _ZTIN4Jack16JackBaseWinMutexE @215 DATA
    _ZTIN4Jack16JackNetExceptionE @216 DATA
    _ZTIN4Jack16JackNetInterfaceE @217 DATA
    _ZTIN4Jack17JackQuitExceptionE @218 DATA
    _ZTIN4Jack17NetIntAudioBufferE @219 DATA
    _ZTIN4Jack18NetOpusAudioBufferE @220 DATA
    _ZTIN4Jack19NetFloatAudioBufferE @221 DATA
    _ZTIN4Jack21JackNetSlaveInterfaceE @222 DATA
    _ZTIN4Jack22JackNetMasterInterfaceE @223 DATA
    _ZTIN4Jack22JackTemporaryExceptionE @224 DATA
    _ZTIN4Jack22JackWinCriticalSectionE @225 DATA
    _ZTVN4Jack12JackWinMutexE @226 DATA
    _ZTVN4Jack13JackExceptionE @227 DATA
    _ZTVN4Jack14NetAudioBufferE @228 DATA
    _ZTVN4Jack16JackBaseWinMutexE @229 DATA
    _ZTVN4Jack16JackNetExceptionE @230 DATA
    _ZTVN4Jack16JackNetInterfaceE @231 DATA
    _ZTVN4Jack17JackQuitExceptionE @232 DATA
    _ZTVN4Jack17NetIntAudioBufferE @233 DATA
    _ZTVN4Jack18NetOpusAudioBufferE @234 DATA
    _ZTVN4Jack19NetFloatAudioBufferE @235 DATA
    _ZTVN4Jack21JackNetSlaveInterfaceE @236 DATA
    _ZTVN4Jack22JackNetMasterInterfaceE @237 DATA
    _ZTVN4Jack22JackTemporaryExceptionE @238 DATA
    _ZTVN4Jack22JackWinCriticalSectionE @239 DATA
    jack_adapter_pull_and_push @240
    jack_adapter_push_and_pull @241
    jack_create_adapter @242
    jack_destroy_adapter @243
    jack_error @244
    jack_flush_adapter @245
    jack_info @246
    jack_log @247
    jack_net_master_close @248
    jack_net_master_open @249
    jack_net_master_recv @250
    jack_net_master_recv_slice @251
    jack_net_master_send @252
    jack_net_master_send_slice @253
    jack_net_slave_activate @254
    jack_net_slave_close @255
    jack_net_slave_deactivate @256
    jack_net_slave_is_active @257
    jack_net_slave_open @258
    jack_ringbuffer_create @259
    jack_ringbuffer_free @260
    jack_ringbuffer_get_read_vector @261
    jack_ringbuffer_get_write_vector @262
    jack_ringbuffer_mlock @263
    jack_ringbuffer_peek @264
    jack_ringbuffer_read @265
    jack_ringbuffer_read_advance @266
    jack_ringbuffer_read_space @267
    jack_ringbuffer_reset @268
    jack_ringbuffer_reset_size @269
    jack_ringbuffer_write @270
    jack_ringbuffer_write_advance @271
    jack_ringbuffer_write_space @272
    jack_set_net_slave_buffer_size_callback @273
    jack_set_net_slave_error_callback @274
    jack_set_net_slave_process_callback @275
    jack_set_net_slave_restart_callback @276
    jack_set_net_slave_sample_rate_callback @277
    jack_set_net_slave_shutdown_callback @278
